target datalayout = "e-m:e-p270:32:32-p271:32:32-p272:64:64-i64:64-i128:128-f80:128-n8:16:32:64-S128"
target triple = "x86_64-unknown-linux-gnu"

%"class.QuantLib::Array" = type { %"class.std::unique_ptr", i64 }
%"class.std::unique_ptr" = type { %"struct.std::__uniq_ptr_data" }
%"struct.std::__uniq_ptr_data" = type { %"class.std::__uniq_ptr_impl" }
%"class.std::__uniq_ptr_impl" = type { %"class.std::tuple" }
%"class.std::tuple" = type { %"struct.std::_Tuple_impl" }
%"struct.std::_Tuple_impl" = type { %"struct.std::_Head_base.24" }
%"struct.std::_Head_base.24" = type { ptr }
%"struct.__gnu_cxx::__ops::_Iter_less_iter" = type { i8 }

; Function Attrs: mustprogress nounwind uwtable
define linkonce_odr noundef nonnull align 8 dereferenceable(8) ptr @_ZNSt10_Head_baseILm0EPdLb0EE7_M_headERKS1_(ptr noundef nonnull align 8 dereferenceable(8) %__b) #4 comdat align 2 {
entry:
  %__b.addr = alloca ptr, align 8
  store ptr %__b, ptr %__b.addr, align 8, !tbaa !3
  %0 = load ptr, ptr %__b.addr, align 8, !tbaa !3
  %_M_head_impl = getelementptr inbounds nuw %"struct.std::_Head_base.24", ptr %0, i32 0, i32 0
  ret ptr %_M_head_impl
}

; Function Attrs: mustprogress nounwind uwtable
define linkonce_odr noundef nonnull align 8 dereferenceable(8) ptr @_ZNSt11_Tuple_implILm0EJPdSt14default_deleteIA_dEEE7_M_headERKS4_(ptr noundef nonnull align 8 dereferenceable(8) %__t) #4 comdat align 2 {
entry:
  %__t.addr = alloca ptr, align 8
  store ptr %__t, ptr %__t.addr, align 8, !tbaa !3
  %0 = load ptr, ptr %__t.addr, align 8, !tbaa !3
  %call = call noundef nonnull align 8 dereferenceable(8) ptr @_ZNSt10_Head_baseILm0EPdLb0EE7_M_headERKS1_(ptr noundef nonnull align 8 dereferenceable(8) %0) #14
  ret ptr %call
}

; Function Attrs: mustprogress nounwind uwtable
define linkonce_odr noundef nonnull align 8 dereferenceable(8) ptr @_ZSt12__get_helperILm0EPdJSt14default_deleteIA_dEEERKT0_RKSt11_Tuple_implIXT_EJS4_DpT1_EE(ptr noundef nonnull align 8 dereferenceable(8) %__t) #4 comdat {
entry:
  %__t.addr = alloca ptr, align 8
  store ptr %__t, ptr %__t.addr, align 8, !tbaa !3
  %0 = load ptr, ptr %__t.addr, align 8, !tbaa !3
  %call = call noundef nonnull align 8 dereferenceable(8) ptr @_ZNSt11_Tuple_implILm0EJPdSt14default_deleteIA_dEEE7_M_headERKS4_(ptr noundef nonnull align 8 dereferenceable(8) %0) #14
  ret ptr %call
}

; Function Attrs: mustprogress nounwind uwtable
define linkonce_odr noundef nonnull align 8 dereferenceable(8) ptr @_ZSt3getILm0EJPdSt14default_deleteIA_dEEERKNSt13tuple_elementIXT_ESt5tupleIJDpT0_EEE4typeERKS8_(ptr noundef nonnull align 8 dereferenceable(8) %__t) #4 comdat {
entry:
  %__t.addr = alloca ptr, align 8
  store ptr %__t, ptr %__t.addr, align 8, !tbaa !3
  %0 = load ptr, ptr %__t.addr, align 8, !tbaa !3
  %call = call noundef nonnull align 8 dereferenceable(8) ptr @_ZSt12__get_helperILm0EPdJSt14default_deleteIA_dEEERKT0_RKSt11_Tuple_implIXT_EJS4_DpT1_EE(ptr noundef nonnull align 8 dereferenceable(8) %0) #14
  ret ptr %call
}

; Function Attrs: mustprogress nounwind uwtable
define linkonce_odr noundef zeroext i1 @_ZNK9__gnu_cxx5__ops15_Iter_less_iterclIPKdS4_EEbT_T0_(ptr noundef nonnull align 1 dereferenceable(1) %this, ptr noundef %__it1, ptr noundef %__it2) #4 comdat align 2 {
entry:
  %this.addr = alloca ptr, align 8
  %__it1.addr = alloca ptr, align 8
  %__it2.addr = alloca ptr, align 8
  store ptr %this, ptr %this.addr, align 8, !tbaa !3
  store ptr %__it1, ptr %__it1.addr, align 8, !tbaa !3
  store ptr %__it2, ptr %__it2.addr, align 8, !tbaa !3
  %0 = load ptr, ptr %__it1.addr, align 8, !tbaa !3
  %1 = load double, ptr %0, align 8, !tbaa !29
  %2 = load ptr, ptr %__it2.addr, align 8, !tbaa !3
  %3 = load double, ptr %2, align 8, !tbaa !29
  %cmp = fcmp olt double %1, %3
  ret i1 %cmp
}

; Function Attrs: mustprogress nounwind uwtable
define linkonce_odr noundef ptr @_ZNKSt15__uniq_ptr_implIdSt14default_deleteIA_dEE6_M_ptrEv(ptr noundef nonnull align 8 dereferenceable(8) %this) #4 comdat align 2 {
entry:
  %this.addr = alloca ptr, align 8
  store ptr %this, ptr %this.addr, align 8, !tbaa !3
  %this1 = load ptr, ptr %this.addr, align 8
  %_M_t = getelementptr inbounds nuw %"class.std::__uniq_ptr_impl", ptr %this1, i32 0, i32 0
  %call = call noundef nonnull align 8 dereferenceable(8) ptr @_ZSt3getILm0EJPdSt14default_deleteIA_dEEERKNSt13tuple_elementIXT_ESt5tupleIJDpT0_EEE4typeERKS8_(ptr noundef nonnull align 8 dereferenceable(8) %_M_t) #14
  %0 = load ptr, ptr %call, align 8, !tbaa !3
  ret ptr %0
}

; Function Attrs: mustprogress uwtable
define linkonce_odr noundef ptr @_ZSt13__max_elementIPKdN9__gnu_cxx5__ops15_Iter_less_iterEET_S5_S5_T0_(ptr noundef %__first, ptr noundef %__last) #2 comdat {
entry:
  %retval = alloca ptr, align 8
  %__comp = alloca %"struct.__gnu_cxx::__ops::_Iter_less_iter", align 1
  %__first.addr = alloca ptr, align 8
  %__last.addr = alloca ptr, align 8
  %__result = alloca ptr, align 8
  store ptr %__first, ptr %__first.addr, align 8, !tbaa !3
  store ptr %__last, ptr %__last.addr, align 8, !tbaa !3
  %0 = load ptr, ptr %__first.addr, align 8, !tbaa !3
  %1 = load ptr, ptr %__last.addr, align 8, !tbaa !3
  %cmp = icmp eq ptr %0, %1
  br i1 %cmp, label %if.then, label %if.end

if.then:                                          ; preds = %entry
  %2 = load ptr, ptr %__first.addr, align 8, !tbaa !3
  store ptr %2, ptr %retval, align 8
  br label %return

if.end:                                           ; preds = %entry
  call void @llvm.lifetime.start.p0(i64 8, ptr %__result) #14
  %3 = load ptr, ptr %__first.addr, align 8, !tbaa !3
  store ptr %3, ptr %__result, align 8, !tbaa !3
  br label %while.cond

while.cond:                                       ; preds = %if.end3, %if.end
  %4 = load ptr, ptr %__first.addr, align 8, !tbaa !3
  %incdec.ptr = getelementptr inbounds nuw double, ptr %4, i32 1
  store ptr %incdec.ptr, ptr %__first.addr, align 8, !tbaa !3
  %5 = load ptr, ptr %__last.addr, align 8, !tbaa !3
  %cmp1 = icmp ne ptr %incdec.ptr, %5
  br i1 %cmp1, label %while.body, label %while.end

while.body:                                       ; preds = %while.cond
  %6 = load ptr, ptr %__result, align 8, !tbaa !3
  %7 = load ptr, ptr %__first.addr, align 8, !tbaa !3
  %call = call noundef zeroext i1 @_ZNK9__gnu_cxx5__ops15_Iter_less_iterclIPKdS4_EEbT_T0_(ptr noundef nonnull align 1 dereferenceable(1) %__comp, ptr noundef %6, ptr noundef %7)
  br i1 %call, label %if.then2, label %if.end3

if.then2:                                         ; preds = %while.body
  %8 = load ptr, ptr %__first.addr, align 8, !tbaa !3
  store ptr %8, ptr %__result, align 8, !tbaa !3
  br label %if.end3

if.end3:                                          ; preds = %if.then2, %while.body
  br label %while.cond, !llvm.loop !54

while.end:                                        ; preds = %while.cond
  %9 = load ptr, ptr %__result, align 8, !tbaa !3
  store ptr %9, ptr %retval, align 8
  call void @llvm.lifetime.end.p0(i64 8, ptr %__result) #14
  br label %return

return:                                           ; preds = %while.end, %if.then
  %10 = load ptr, ptr %retval, align 8
  ret ptr %10
}

; Function Attrs: inlinehint mustprogress nounwind uwtable
define linkonce_odr void @_ZN9__gnu_cxx5__ops16__iter_less_iterEv() #6 comdat {
entry:
  ret void
}

; Function Attrs: mustprogress nounwind uwtable
define linkonce_odr noundef ptr @_ZNKSt10unique_ptrIA_dSt14default_deleteIS0_EE3getEv(ptr noundef nonnull align 8 dereferenceable(8) %this) #4 comdat align 2 {
entry:
  %this.addr = alloca ptr, align 8
  store ptr %this, ptr %this.addr, align 8, !tbaa !3
  %this1 = load ptr, ptr %this.addr, align 8
  %_M_t = getelementptr inbounds nuw %"class.std::unique_ptr", ptr %this1, i32 0, i32 0
  %call = call noundef ptr @_ZNKSt15__uniq_ptr_implIdSt14default_deleteIA_dEE6_M_ptrEv(ptr noundef nonnull align 8 dereferenceable(8) %_M_t) #14
  ret ptr %call
}

; Function Attrs: inlinehint mustprogress uwtable
define linkonce_odr noundef ptr @_ZSt11max_elementIPKdET_S2_S2_(ptr noundef %__first, ptr noundef %__last) #3 comdat {
entry:
  %__first.addr = alloca ptr, align 8
  %__last.addr = alloca ptr, align 8
  store ptr %__first, ptr %__first.addr, align 8, !tbaa !3
  store ptr %__last, ptr %__last.addr, align 8, !tbaa !3
  %0 = load ptr, ptr %__first.addr, align 8, !tbaa !3
  %1 = load ptr, ptr %__last.addr, align 8, !tbaa !3
  call void @_ZN9__gnu_cxx5__ops16__iter_less_iterEv()
  %call = call noundef ptr @_ZSt13__max_elementIPKdN9__gnu_cxx5__ops15_Iter_less_iterEET_S5_S5_T0_(ptr noundef %0, ptr noundef %1)
  ret ptr %call
}

; Function Attrs: inlinehint mustprogress nounwind uwtable
define linkonce_odr noundef ptr @_ZNK8QuantLib5Array3endEv(ptr noundef nonnull align 8 dereferenceable(16) %this) #6 comdat align 2 {
entry:
  %this.addr = alloca ptr, align 8
  store ptr %this, ptr %this.addr, align 8, !tbaa !3
  %this1 = load ptr, ptr %this.addr, align 8
  %data_ = getelementptr inbounds nuw %"class.QuantLib::Array", ptr %this1, i32 0, i32 0
  %call = call noundef ptr @_ZNKSt10unique_ptrIA_dSt14default_deleteIS0_EE3getEv(ptr noundef nonnull align 8 dereferenceable(8) %data_) #14
  %n_ = getelementptr inbounds nuw %"class.QuantLib::Array", ptr %this1, i32 0, i32 1
  %0 = load i64, ptr %n_, align 8, !tbaa !36
  %add.ptr = getelementptr inbounds nuw double, ptr %call, i64 %0
  ret ptr %add.ptr
}

; Function Attrs: inlinehint mustprogress nounwind uwtable
define linkonce_odr noundef ptr @_ZNK8QuantLib5Array5beginEv(ptr noundef nonnull align 8 dereferenceable(16) %this) #6 comdat align 2 {
entry:
  %this.addr = alloca ptr, align 8
  store ptr %this, ptr %this.addr, align 8, !tbaa !3
  %this1 = load ptr, ptr %this.addr, align 8
  %data_ = getelementptr inbounds nuw %"class.QuantLib::Array", ptr %this1, i32 0, i32 0
  %call = call noundef ptr @_ZNKSt10unique_ptrIA_dSt14default_deleteIS0_EE3getEv(ptr noundef nonnull align 8 dereferenceable(8) %data_) #14
  ret ptr %call
}

; Function Attrs: mustprogress uwtable
define noundef double @_ZNK8QuantLib29FdmVPPStartLimitStepCondition8maxValueERKNS_5ArrayE(ptr noundef nonnull align 8 dereferenceable(168) %this, ptr noundef nonnull align 8 dereferenceable(16) %states) unnamed_addr #2 align 2 {
entry:
  %this.addr = alloca ptr, align 8
  %states.addr = alloca ptr, align 8
  store ptr %this, ptr %this.addr, align 8, !tbaa !3
  store ptr %states, ptr %states.addr, align 8, !tbaa !3
  %0 = load ptr, ptr %states.addr, align 8, !tbaa !3
  %call = call noundef ptr @_ZNK8QuantLib5Array5beginEv(ptr noundef nonnull align 8 dereferenceable(16) %0)
  %1 = load ptr, ptr %states.addr, align 8, !tbaa !3
  %call2 = call noundef ptr @_ZNK8QuantLib5Array3endEv(ptr noundef nonnull align 8 dereferenceable(16) %1)
  %call3 = call noundef ptr @_ZSt11max_elementIPKdET_S2_S2_(ptr noundef %call, ptr noundef %call2)
  %2 = load double, ptr %call3, align 8, !tbaa !29
  ret double %2
}