; Function Attrs: mustprogress nofree norecurse nosync nounwind willreturn memory(read, inaccessiblemem: none) uwtable
define noundef double @_ZNK8QuantLib29FdmVPPStartLimitStepCondition8maxValueERKNS_5ArrayE(ptr nocapture nonnull readnone align 8 %this, ptr nocapture noundef nonnull readonly align 8 dereferenceable(16) %states) unnamed_addr #10 align 2 {
entry:
  %0 = load ptr, ptr %states, align 8, !tbaa !46
  %n_.i = getelementptr inbounds nuw i8, ptr %states, i64 8
  %1 = load i64, ptr %n_.i, align 8, !tbaa !38
  %add.ptr.i.idx = shl nuw nsw i64 %1, 3
  %add.ptr.i = getelementptr inbounds nuw i8, ptr %0, i64 %add.ptr.i.idx
  %or.cond.i.i = icmp ult i64 %1, 2
  br i1 %or.cond.i.i, label %_ZSt11max_elementIPKdET_S2_S2_.exit, label %while.body.preheader.i.i

while.body.preheader.i.i:                         ; preds = %entry
  %incdec.ptr8.i.i = getelementptr inbounds nuw i8, ptr %0, i64 8
  %.pre.i.i = load double, ptr %0, align 8, !tbaa !48
  br label %while.body.i.i

while.body.i.i:                                   ; preds = %while.body.i.i, %while.body.preheader.i.i
  %2 = phi double [ %4, %while.body.i.i ], [ %.pre.i.i, %while.body.preheader.i.i ]
  %incdec.ptr11.i.i = phi ptr [ %incdec.ptr.i.i, %while.body.i.i ], [ %incdec.ptr8.i.i, %while.body.preheader.i.i ]
  %__result.010.i.i = phi ptr [ %spec.select.i.i, %while.body.i.i ], [ %0, %while.body.preheader.i.i ]
  %3 = load double, ptr %incdec.ptr11.i.i, align 8, !tbaa !48
  %cmp.i.i.i = fcmp olt double %2, %3
  %4 = select i1 %cmp.i.i.i, double %3, double %2
  %spec.select.i.i = select i1 %cmp.i.i.i, ptr %incdec.ptr11.i.i, ptr %__result.010.i.i
  %incdec.ptr.i.i = getelementptr inbounds nuw i8, ptr %incdec.ptr11.i.i, i64 8
  %cmp1.not.i.i = icmp eq ptr %incdec.ptr.i.i, %add.ptr.i
  br i1 %cmp1.not.i.i, label %_ZSt11max_elementIPKdET_S2_S2_.exit, label %while.body.i.i, !llvm.loop !51

_ZSt11max_elementIPKdET_S2_S2_.exit:              ; preds = %while.body.i.i, %entry
  %retval.0.i.i = phi ptr [ %0, %entry ], [ %spec.select.i.i, %while.body.i.i ]
  %5 = load double, ptr %retval.0.i.i, align 8, !tbaa !48
  ret double %5
}